; Function Attrs: nounwind uwtable
define ptr @l_Lean_PrettyPrinter_Delaborator_SubExpr_withBoundedAppFnArgs___rarg(ptr noundef %0, ptr noundef %1, ptr noundef %2, ptr noundef %3, ptr noundef %4, ptr noundef %5) #0 {
  %7 = getelementptr inbounds nuw i8, ptr %0, i64 16
  %8 = load ptr, ptr %7, align 8, !tbaa !5
  %9 = ptrtoint ptr %8 to i64
  %10 = and i64 %9, 1
  %.not = icmp eq i64 %10, 0
  br i1 %.not, label %11, label %lean_inc.exit27

11:                                               ; preds = %6
  %.val.i = load i32, ptr %8, align 4, !tbaa !9
  %12 = icmp sgt i32 %.val.i, 0
  br i1 %12, label %13, label %15, !prof !12

13:                                               ; preds = %11
  %14 = add nuw i32 %.val.i, 1
  store i32 %14, ptr %8, align 4, !tbaa !9
  br label %lean_inc.exit27

15:                                               ; preds = %11
  %.not.i = icmp eq i32 %.val.i, 0
  br i1 %.not.i, label %lean_inc.exit27, label %16

16:                                               ; preds = %15
  tail call void @lean_inc_ref_cold(ptr noundef nonnull %8) #5
  br label %lean_inc.exit27

lean_inc.exit27:                                  ; preds = %16, %15, %13, %6
  %17 = ptrtoint ptr %1 to i64
  %18 = and i64 %17, 1
  %.not38 = icmp eq i64 %18, 0
  br i1 %.not38, label %19, label %lean_inc.exit26

19:                                               ; preds = %lean_inc.exit27
  %.val.i28 = load i32, ptr %1, align 4, !tbaa !9
  %20 = icmp sgt i32 %.val.i28, 0
  br i1 %20, label %21, label %23, !prof !12

21:                                               ; preds = %19
  %22 = add nuw i32 %.val.i28, 1
  store i32 %22, ptr %1, align 4, !tbaa !9
  br label %lean_inc.exit26

23:                                               ; preds = %19
  %.not.i29 = icmp eq i32 %.val.i28, 0
  br i1 %.not.i29, label %lean_inc.exit26, label %24

24:                                               ; preds = %23
  tail call void @lean_inc_ref_cold(ptr noundef nonnull %1) #5
  br label %lean_inc.exit26

lean_inc.exit26:                                  ; preds = %24, %23, %21, %lean_inc.exit27
  %25 = ptrtoint ptr %0 to i64
  %26 = and i64 %25, 1
  %.not39 = icmp eq i64 %26, 0
  br i1 %.not39, label %27, label %lean_inc.exit25

27:                                               ; preds = %lean_inc.exit26
  %.val.i31 = load i32, ptr %0, align 4, !tbaa !9
  %28 = icmp sgt i32 %.val.i31, 0
  br i1 %28, label %29, label %31, !prof !12

29:                                               ; preds = %27
  %30 = add nuw i32 %.val.i31, 1
  store i32 %30, ptr %0, align 4, !tbaa !9
  br label %lean_inc.exit25

31:                                               ; preds = %27
  %.not.i32 = icmp eq i32 %.val.i31, 0
  br i1 %.not.i32, label %lean_inc.exit25, label %32

32:                                               ; preds = %31
  tail call void @lean_inc_ref_cold(ptr noundef nonnull %0) #5
  br label %lean_inc.exit25

lean_inc.exit25:                                  ; preds = %32, %31, %29, %lean_inc.exit26
  %33 = load ptr, ptr %7, align 8, !tbaa !5
  %34 = ptrtoint ptr %33 to i64
  %35 = and i64 %34, 1
  %.not.i34 = icmp eq i64 %35, 0
  br i1 %.not.i34, label %36, label %lean_inc.exit.i

36:                                               ; preds = %lean_inc.exit25
  %.val.i.i = load i32, ptr %33, align 4, !tbaa !9
  %37 = icmp sgt i32 %.val.i.i, 0
  br i1 %37, label %38, label %40, !prof !12

38:                                               ; preds = %36
  %39 = add nuw i32 %.val.i.i, 1
  store i32 %39, ptr %33, align 4, !tbaa !9
  br label %lean_inc.exit.i

40:                                               ; preds = %36
  %.not.i.i = icmp eq i32 %.val.i.i, 0
  br i1 %.not.i.i, label %lean_inc.exit.i, label %41

41:                                               ; preds = %40
  tail call void @lean_inc_ref_cold(ptr noundef nonnull %33) #5
  br label %lean_inc.exit.i

lean_inc.exit.i:                                  ; preds = %41, %40, %38, %lean_inc.exit25
  tail call void @lean_inc_heartbeat() #5
  %42 = tail call noalias ptr @mi_malloc_small(i64 noundef 32) #5
  %43 = icmp eq ptr %42, null
  br i1 %43, label %44, label %l_Lean_PrettyPrinter_Delaborator_SubExpr_getExpr___rarg.exit

44:                                               ; preds = %lean_inc.exit.i
  tail call void @lean_internal_panic_out_of_memory() #6
  unreachable

l_Lean_PrettyPrinter_Delaborator_SubExpr_getExpr___rarg.exit: ; preds = %lean_inc.exit.i
  %45 = getelementptr inbounds nuw i8, ptr %42, i64 4
  store i32 1, ptr %42, align 4, !tbaa !9
  store i32 -184549344, ptr %45, align 4
  %46 = getelementptr inbounds nuw i8, ptr %42, i64 8
  store ptr @l_Lean_PrettyPrinter_Delaborator_SubExpr_getExpr___rarg___lambda__1, ptr %46, align 8, !tbaa !5
  %47 = getelementptr inbounds nuw i8, ptr %42, i64 16
  store i16 2, ptr %47, align 8, !tbaa !17
  %48 = getelementptr inbounds nuw i8, ptr %42, i64 18
  store i16 1, ptr %48, align 2, !tbaa !17
  %49 = getelementptr inbounds nuw i8, ptr %42, i64 24
  store ptr %0, ptr %49, align 8, !tbaa !5
  %50 = tail call ptr @lean_apply_4(ptr noundef %33, ptr noundef nonnull inttoptr (i64 1 to ptr), ptr noundef nonnull inttoptr (i64 1 to ptr), ptr noundef %1, ptr noundef nonnull %42) #5
  br i1 %.not, label %51, label %lean_inc.exit

51:                                               ; preds = %l_Lean_PrettyPrinter_Delaborator_SubExpr_getExpr___rarg.exit
  %.val.i35 = load i32, ptr %8, align 4, !tbaa !9
  %52 = icmp sgt i32 %.val.i35, 0
  br i1 %52, label %53, label %55, !prof !12

53:                                               ; preds = %51
  %54 = add nuw i32 %.val.i35, 1
  store i32 %54, ptr %8, align 4, !tbaa !9
  br label %lean_inc.exit

55:                                               ; preds = %51
  %.not.i36 = icmp eq i32 %.val.i35, 0
  br i1 %.not.i36, label %lean_inc.exit, label %56

56:                                               ; preds = %55
  tail call void @lean_inc_ref_cold(ptr noundef nonnull %8) #5
  br label %lean_inc.exit

lean_inc.exit:                                    ; preds = %56, %55, %53, %l_Lean_PrettyPrinter_Delaborator_SubExpr_getExpr___rarg.exit
  tail call void @lean_inc_heartbeat() #5
  %57 = tail call noalias ptr @mi_malloc_small(i64 noundef 80) #5
  %58 = icmp eq ptr %57, null
  br i1 %58, label %59, label %lean_alloc_closure.exit

59:                                               ; preds = %lean_inc.exit
  tail call void @lean_internal_panic_out_of_memory() #6
  unreachable

lean_alloc_closure.exit:                          ; preds = %lean_inc.exit
  %60 = getelementptr inbounds nuw i8, ptr %57, i64 4
  store i32 1, ptr %57, align 4, !tbaa !9
  store i32 -184549296, ptr %60, align 4
  %61 = getelementptr inbounds nuw i8, ptr %57, i64 8
  store ptr @l_Lean_PrettyPrinter_Delaborator_SubExpr_withBoundedAppFnArgs___rarg___lambda__1___boxed, ptr %61, align 8, !tbaa !5
  %62 = getelementptr inbounds nuw i8, ptr %57, i64 16
  store i16 8, ptr %62, align 8, !tbaa !17
  %63 = getelementptr inbounds nuw i8, ptr %57, i64 18
  store i16 7, ptr %63, align 2, !tbaa !17
  %64 = getelementptr inbounds nuw i8, ptr %57, i64 24
  store ptr %3, ptr %64, align 8, !tbaa !5
  %65 = getelementptr inbounds nuw i8, ptr %57, i64 32
  store ptr %4, ptr %65, align 8, !tbaa !5
  %66 = getelementptr inbounds nuw i8, ptr %57, i64 40
  store ptr %0, ptr %66, align 8, !tbaa !5
  %67 = getelementptr inbounds nuw i8, ptr %57, i64 48
  store ptr %1, ptr %67, align 8, !tbaa !5
  %68 = getelementptr inbounds nuw i8, ptr %57, i64 56
  store ptr %2, ptr %68, align 8, !tbaa !5
  %69 = getelementptr inbounds nuw i8, ptr %57, i64 64
  store ptr %5, ptr %69, align 8, !tbaa !5
  %70 = getelementptr inbounds nuw i8, ptr %57, i64 72
  store ptr %8, ptr %70, align 8, !tbaa !5
  %71 = tail call ptr @lean_apply_4(ptr noundef %8, ptr noundef nonnull inttoptr (i64 1 to ptr), ptr noundef nonnull inttoptr (i64 1 to ptr), ptr noundef %50, ptr noundef nonnull %57) #5
  ret ptr %71
}